; Function Attrs: mustprogress nofree nounwind willreturn memory(write) uwtable
define internal float @avifToGamma709(float noundef %0) #5 {
  %2 = fcmp olt float %0, 0.000000e+00
  br i1 %2, label %12, label %3

3:                                                ; preds = %1
  %4 = fcmp olt float %0, 0x3F927CBD60000000
  br i1 %4, label %5, label %7

5:                                                ; preds = %3
  %6 = fmul float %0, 4.500000e+00
  br label %12

7:                                                ; preds = %3
  %8 = fcmp olt float %0, 1.000000e+00
  br i1 %8, label %9, label %12

9:                                                ; preds = %7
  %10 = tail call float @powf(float noundef %0, float noundef 0x3FDCCCCCC0000000) #9
  %11 = tail call float @llvm.fmuladd.f32(float %10, float 0x3FF196B840000000, float 0xBFB96B8440000000)
  br label %12

12:                                               ; preds = %7, %1, %9, %5
  %.0 = phi float [ %6, %5 ], [ %11, %9 ], [ 0.000000e+00, %1 ], [ 1.000000e+00, %7 ]
  ret float %.0
}